
bin/fibo.elf:     file format elf32-littleriscv


Disassembly of section .text:

00000000 <_start>:
   0:	00001197          	auipc	gp,0x1
   4:	80018193          	addi	gp,gp,-2048 # 800 <__global_pointer$>
   8:	20000517          	auipc	a0,0x20000
   c:	42050513          	addi	a0,a0,1056 # 20000428 <__FRAME_END__>
  10:	20000617          	auipc	a2,0x20000
  14:	47860613          	addi	a2,a2,1144 # 20000488 <_end>
  18:	40a60633          	sub	a2,a2,a0
  1c:	00000593          	li	a1,0
  20:	228000ef          	jal	ra,248 <memset>
  24:	00000517          	auipc	a0,0x0
  28:	47450513          	addi	a0,a0,1140 # 498 <atexit>
  2c:	00050863          	beqz	a0,3c <_start+0x3c>
  30:	00000517          	auipc	a0,0x0
  34:	41450513          	addi	a0,a0,1044 # 444 <__libc_fini_array>
  38:	460000ef          	jal	ra,498 <atexit>
  3c:	180000ef          	jal	ra,1bc <__libc_init_array>
  40:	00012503          	lw	a0,0(sp)
  44:	00410593          	addi	a1,sp,4
  48:	00000613          	li	a2,0
  4c:	0d4000ef          	jal	ra,120 <main>
  50:	13c0006f          	j	18c <exit>

00000054 <__do_global_dtors_aux>:
  54:	ff010113          	addi	sp,sp,-16
  58:	00812423          	sw	s0,8(sp)
  5c:	20000437          	lui	s0,0x20000
  60:	44044783          	lbu	a5,1088(s0) # 20000440 <completed.1>
  64:	00112623          	sw	ra,12(sp)
  68:	02079263          	bnez	a5,8c <__do_global_dtors_aux+0x38>
  6c:	00000793          	li	a5,0
  70:	00078a63          	beqz	a5,84 <__do_global_dtors_aux+0x30>
  74:	20000537          	lui	a0,0x20000
  78:	42850513          	addi	a0,a0,1064 # 20000428 <__FRAME_END__>
  7c:	00000097          	auipc	ra,0x0
  80:	000000e7          	jalr	zero # 0 <_start>
  84:	00100793          	li	a5,1
  88:	44f40023          	sb	a5,1088(s0)
  8c:	00c12083          	lw	ra,12(sp)
  90:	00812403          	lw	s0,8(sp)
  94:	01010113          	addi	sp,sp,16
  98:	00008067          	ret

0000009c <frame_dummy>:
  9c:	00000793          	li	a5,0
  a0:	00078e63          	beqz	a5,bc <frame_dummy+0x20>
  a4:	200005b7          	lui	a1,0x20000
  a8:	20000537          	lui	a0,0x20000
  ac:	44458593          	addi	a1,a1,1092 # 20000444 <object.0>
  b0:	42850513          	addi	a0,a0,1064 # 20000428 <__FRAME_END__>
  b4:	00000317          	auipc	t1,0x0
  b8:	00000067          	jr	zero # 0 <_start>
  bc:	00008067          	ret

000000c0 <fibo>:
  c0:	fe010113          	addi	sp,sp,-32
  c4:	00112e23          	sw	ra,28(sp)
  c8:	00812c23          	sw	s0,24(sp)
  cc:	02010413          	addi	s0,sp,32
  d0:	fea42623          	sw	a0,-20(s0)
  d4:	fec42783          	lw	a5,-20(s0)
  d8:	00078863          	beqz	a5,e8 <fibo+0x28>
  dc:	fec42703          	lw	a4,-20(s0)
  e0:	00100793          	li	a5,1
  e4:	00f71663          	bne	a4,a5,f0 <fibo+0x30>
  e8:	00100793          	li	a5,1
  ec:	0200006f          	j	10c <_Min_Stack_Size+0xc>
  f0:	fec42783          	lw	a5,-20(s0)
  f4:	fff78793          	addi	a5,a5,-1
  f8:	00078513          	mv	a0,a5
  fc:	fc5ff0ef          	jal	ra,c0 <fibo>
 100:	00050713          	mv	a4,a0
 104:	fec42783          	lw	a5,-20(s0)
 108:	00f707b3          	add	a5,a4,a5
 10c:	00078513          	mv	a0,a5
 110:	01c12083          	lw	ra,28(sp)
 114:	01812403          	lw	s0,24(sp)
 118:	02010113          	addi	sp,sp,32
 11c:	00008067          	ret

00000120 <main>:
 120:	fe010113          	addi	sp,sp,-32
 124:	00112e23          	sw	ra,28(sp)
 128:	00812c23          	sw	s0,24(sp)
 12c:	02010413          	addi	s0,sp,32
 130:	fe042623          	sw	zero,-20(s0)
 134:	0340006f          	j	168 <main+0x48>
 138:	fec42503          	lw	a0,-20(s0)
 13c:	f85ff0ef          	jal	ra,c0 <fibo>
 140:	00050693          	mv	a3,a0
 144:	200007b7          	lui	a5,0x20000
 148:	45c78713          	addi	a4,a5,1116 # 2000045c <values>
 14c:	fec42783          	lw	a5,-20(s0)
 150:	00279793          	slli	a5,a5,0x2
 154:	00f707b3          	add	a5,a4,a5
 158:	00d7a023          	sw	a3,0(a5)
 15c:	fec42783          	lw	a5,-20(s0)
 160:	00178793          	addi	a5,a5,1
 164:	fef42623          	sw	a5,-20(s0)
 168:	fec42703          	lw	a4,-20(s0)
 16c:	00900793          	li	a5,9
 170:	fce7d4e3          	bge	a5,a4,138 <main+0x18>
 174:	00000793          	li	a5,0
 178:	00078513          	mv	a0,a5
 17c:	01c12083          	lw	ra,28(sp)
 180:	01812403          	lw	s0,24(sp)
 184:	02010113          	addi	sp,sp,32
 188:	00008067          	ret

0000018c <exit>:
 18c:	ff010113          	addi	sp,sp,-16
 190:	00000593          	li	a1,0
 194:	00812423          	sw	s0,8(sp)
 198:	00112623          	sw	ra,12(sp)
 19c:	00050413          	mv	s0,a0
 1a0:	184000ef          	jal	ra,324 <__call_exitprocs>
 1a4:	59402503          	lw	a0,1428(zero) # 594 <_etext>
 1a8:	03c52783          	lw	a5,60(a0)
 1ac:	00078463          	beqz	a5,1b4 <exit+0x28>
 1b0:	000780e7          	jalr	a5
 1b4:	00040513          	mv	a0,s0
 1b8:	38c000ef          	jal	ra,544 <_exit>

000001bc <__libc_init_array>:
 1bc:	ff010113          	addi	sp,sp,-16
 1c0:	00812423          	sw	s0,8(sp)
 1c4:	01212023          	sw	s2,0(sp)
 1c8:	00000793          	li	a5,0
 1cc:	00000913          	li	s2,0
 1d0:	40f90933          	sub	s2,s2,a5
 1d4:	00112623          	sw	ra,12(sp)
 1d8:	00912223          	sw	s1,4(sp)
 1dc:	40295913          	srai	s2,s2,0x2
 1e0:	02090063          	beqz	s2,200 <__libc_init_array+0x44>
 1e4:	00000413          	li	s0,0
 1e8:	00000493          	li	s1,0
 1ec:	00042783          	lw	a5,0(s0)
 1f0:	00148493          	addi	s1,s1,1
 1f4:	00440413          	addi	s0,s0,4
 1f8:	000780e7          	jalr	a5
 1fc:	fe9918e3          	bne	s2,s1,1ec <__libc_init_array+0x30>
 200:	00000793          	li	a5,0
 204:	00000913          	li	s2,0
 208:	40f90933          	sub	s2,s2,a5
 20c:	40295913          	srai	s2,s2,0x2
 210:	02090063          	beqz	s2,230 <__libc_init_array+0x74>
 214:	00000413          	li	s0,0
 218:	00000493          	li	s1,0
 21c:	00042783          	lw	a5,0(s0)
 220:	00148493          	addi	s1,s1,1
 224:	00440413          	addi	s0,s0,4
 228:	000780e7          	jalr	a5
 22c:	fe9918e3          	bne	s2,s1,21c <__libc_init_array+0x60>
 230:	00c12083          	lw	ra,12(sp)
 234:	00812403          	lw	s0,8(sp)
 238:	00412483          	lw	s1,4(sp)
 23c:	00012903          	lw	s2,0(sp)
 240:	01010113          	addi	sp,sp,16
 244:	00008067          	ret

00000248 <memset>:
 248:	00f00313          	li	t1,15
 24c:	00050713          	mv	a4,a0
 250:	02c37e63          	bgeu	t1,a2,28c <memset+0x44>
 254:	00f77793          	andi	a5,a4,15
 258:	0a079063          	bnez	a5,2f8 <memset+0xb0>
 25c:	08059263          	bnez	a1,2e0 <memset+0x98>
 260:	ff067693          	andi	a3,a2,-16
 264:	00f67613          	andi	a2,a2,15
 268:	00e686b3          	add	a3,a3,a4
 26c:	00b72023          	sw	a1,0(a4)
 270:	00b72223          	sw	a1,4(a4)
 274:	00b72423          	sw	a1,8(a4)
 278:	00b72623          	sw	a1,12(a4)
 27c:	01070713          	addi	a4,a4,16
 280:	fed766e3          	bltu	a4,a3,26c <memset+0x24>
 284:	00061463          	bnez	a2,28c <memset+0x44>
 288:	00008067          	ret
 28c:	40c306b3          	sub	a3,t1,a2
 290:	00269693          	slli	a3,a3,0x2
 294:	00000297          	auipc	t0,0x0
 298:	005686b3          	add	a3,a3,t0
 29c:	00c68067          	jr	12(a3)
 2a0:	00b70723          	sb	a1,14(a4)
 2a4:	00b706a3          	sb	a1,13(a4)
 2a8:	00b70623          	sb	a1,12(a4)
 2ac:	00b705a3          	sb	a1,11(a4)
 2b0:	00b70523          	sb	a1,10(a4)
 2b4:	00b704a3          	sb	a1,9(a4)
 2b8:	00b70423          	sb	a1,8(a4)
 2bc:	00b703a3          	sb	a1,7(a4)
 2c0:	00b70323          	sb	a1,6(a4)
 2c4:	00b702a3          	sb	a1,5(a4)
 2c8:	00b70223          	sb	a1,4(a4)
 2cc:	00b701a3          	sb	a1,3(a4)
 2d0:	00b70123          	sb	a1,2(a4)
 2d4:	00b700a3          	sb	a1,1(a4)
 2d8:	00b70023          	sb	a1,0(a4)
 2dc:	00008067          	ret
 2e0:	0ff5f593          	zext.b	a1,a1
 2e4:	00859693          	slli	a3,a1,0x8
 2e8:	00d5e5b3          	or	a1,a1,a3
 2ec:	01059693          	slli	a3,a1,0x10
 2f0:	00d5e5b3          	or	a1,a1,a3
 2f4:	f6dff06f          	j	260 <memset+0x18>
 2f8:	00279693          	slli	a3,a5,0x2
 2fc:	00000297          	auipc	t0,0x0
 300:	005686b3          	add	a3,a3,t0
 304:	00008293          	mv	t0,ra
 308:	fa0680e7          	jalr	-96(a3)
 30c:	00028093          	mv	ra,t0
 310:	ff078793          	addi	a5,a5,-16
 314:	40f70733          	sub	a4,a4,a5
 318:	00f60633          	add	a2,a2,a5
 31c:	f6c378e3          	bgeu	t1,a2,28c <memset+0x44>
 320:	f3dff06f          	j	25c <memset+0x14>

00000324 <__call_exitprocs>:
 324:	fd010113          	addi	sp,sp,-48
 328:	01412c23          	sw	s4,24(sp)
 32c:	59402a03          	lw	s4,1428(zero) # 594 <_etext>
 330:	03212023          	sw	s2,32(sp)
 334:	02112623          	sw	ra,44(sp)
 338:	148a2903          	lw	s2,328(s4)
 33c:	02812423          	sw	s0,40(sp)
 340:	02912223          	sw	s1,36(sp)
 344:	01312e23          	sw	s3,28(sp)
 348:	01512a23          	sw	s5,20(sp)
 34c:	01612823          	sw	s6,16(sp)
 350:	01712623          	sw	s7,12(sp)
 354:	01812423          	sw	s8,8(sp)
 358:	04090063          	beqz	s2,398 <__call_exitprocs+0x74>
 35c:	00050b13          	mv	s6,a0
 360:	00058b93          	mv	s7,a1
 364:	00100a93          	li	s5,1
 368:	fff00993          	li	s3,-1
 36c:	00492483          	lw	s1,4(s2)
 370:	fff48413          	addi	s0,s1,-1
 374:	02044263          	bltz	s0,398 <__call_exitprocs+0x74>
 378:	00249493          	slli	s1,s1,0x2
 37c:	009904b3          	add	s1,s2,s1
 380:	040b8463          	beqz	s7,3c8 <__call_exitprocs+0xa4>
 384:	1044a783          	lw	a5,260(s1)
 388:	05778063          	beq	a5,s7,3c8 <__call_exitprocs+0xa4>
 38c:	fff40413          	addi	s0,s0,-1
 390:	ffc48493          	addi	s1,s1,-4
 394:	ff3416e3          	bne	s0,s3,380 <__call_exitprocs+0x5c>
 398:	02c12083          	lw	ra,44(sp)
 39c:	02812403          	lw	s0,40(sp)
 3a0:	02412483          	lw	s1,36(sp)
 3a4:	02012903          	lw	s2,32(sp)
 3a8:	01c12983          	lw	s3,28(sp)
 3ac:	01812a03          	lw	s4,24(sp)
 3b0:	01412a83          	lw	s5,20(sp)
 3b4:	01012b03          	lw	s6,16(sp)
 3b8:	00c12b83          	lw	s7,12(sp)
 3bc:	00812c03          	lw	s8,8(sp)
 3c0:	03010113          	addi	sp,sp,48
 3c4:	00008067          	ret
 3c8:	00492783          	lw	a5,4(s2)
 3cc:	0044a683          	lw	a3,4(s1)
 3d0:	fff78793          	addi	a5,a5,-1
 3d4:	04878e63          	beq	a5,s0,430 <__call_exitprocs+0x10c>
 3d8:	0004a223          	sw	zero,4(s1)
 3dc:	fa0688e3          	beqz	a3,38c <__call_exitprocs+0x68>
 3e0:	18892783          	lw	a5,392(s2)
 3e4:	008a9733          	sll	a4,s5,s0
 3e8:	00492c03          	lw	s8,4(s2)
 3ec:	00f777b3          	and	a5,a4,a5
 3f0:	02079263          	bnez	a5,414 <__call_exitprocs+0xf0>
 3f4:	000680e7          	jalr	a3
 3f8:	00492703          	lw	a4,4(s2)
 3fc:	148a2783          	lw	a5,328(s4)
 400:	01871463          	bne	a4,s8,408 <__call_exitprocs+0xe4>
 404:	f92784e3          	beq	a5,s2,38c <__call_exitprocs+0x68>
 408:	f80788e3          	beqz	a5,398 <__call_exitprocs+0x74>
 40c:	00078913          	mv	s2,a5
 410:	f5dff06f          	j	36c <__call_exitprocs+0x48>
 414:	18c92783          	lw	a5,396(s2)
 418:	0844a583          	lw	a1,132(s1)
 41c:	00f77733          	and	a4,a4,a5
 420:	00071c63          	bnez	a4,438 <__call_exitprocs+0x114>
 424:	000b0513          	mv	a0,s6
 428:	000680e7          	jalr	a3
 42c:	fcdff06f          	j	3f8 <__call_exitprocs+0xd4>
 430:	00892223          	sw	s0,4(s2)
 434:	fa9ff06f          	j	3dc <__call_exitprocs+0xb8>
 438:	00058513          	mv	a0,a1
 43c:	000680e7          	jalr	a3
 440:	fb9ff06f          	j	3f8 <__call_exitprocs+0xd4>

00000444 <__libc_fini_array>:
 444:	ff010113          	addi	sp,sp,-16
 448:	00812423          	sw	s0,8(sp)
 44c:	00000793          	li	a5,0
 450:	00000413          	li	s0,0
 454:	40f40433          	sub	s0,s0,a5
 458:	00912223          	sw	s1,4(sp)
 45c:	00112623          	sw	ra,12(sp)
 460:	40245493          	srai	s1,s0,0x2
 464:	02048063          	beqz	s1,484 <__libc_fini_array+0x40>
 468:	ffc40413          	addi	s0,s0,-4
 46c:	00f40433          	add	s0,s0,a5
 470:	00042783          	lw	a5,0(s0)
 474:	fff48493          	addi	s1,s1,-1
 478:	ffc40413          	addi	s0,s0,-4
 47c:	000780e7          	jalr	a5
 480:	fe0498e3          	bnez	s1,470 <__libc_fini_array+0x2c>
 484:	00c12083          	lw	ra,12(sp)
 488:	00812403          	lw	s0,8(sp)
 48c:	00412483          	lw	s1,4(sp)
 490:	01010113          	addi	sp,sp,16
 494:	00008067          	ret

00000498 <atexit>:
 498:	00050593          	mv	a1,a0
 49c:	00000693          	li	a3,0
 4a0:	00000613          	li	a2,0
 4a4:	00000513          	li	a0,0
 4a8:	0040006f          	j	4ac <__register_exitproc>

000004ac <__register_exitproc>:
 4ac:	59402703          	lw	a4,1428(zero) # 594 <_etext>
 4b0:	14872783          	lw	a5,328(a4)
 4b4:	04078c63          	beqz	a5,50c <__register_exitproc+0x60>
 4b8:	0047a703          	lw	a4,4(a5)
 4bc:	01f00813          	li	a6,31
 4c0:	06e84e63          	blt	a6,a4,53c <__register_exitproc+0x90>
 4c4:	00271813          	slli	a6,a4,0x2
 4c8:	02050663          	beqz	a0,4f4 <__register_exitproc+0x48>
 4cc:	01078333          	add	t1,a5,a6
 4d0:	08c32423          	sw	a2,136(t1) # 13c <main+0x1c>
 4d4:	1887a883          	lw	a7,392(a5)
 4d8:	00100613          	li	a2,1
 4dc:	00e61633          	sll	a2,a2,a4
 4e0:	00c8e8b3          	or	a7,a7,a2
 4e4:	1917a423          	sw	a7,392(a5)
 4e8:	10d32423          	sw	a3,264(t1)
 4ec:	00200693          	li	a3,2
 4f0:	02d50463          	beq	a0,a3,518 <__register_exitproc+0x6c>
 4f4:	00170713          	addi	a4,a4,1
 4f8:	00e7a223          	sw	a4,4(a5)
 4fc:	010787b3          	add	a5,a5,a6
 500:	00b7a423          	sw	a1,8(a5)
 504:	00000513          	li	a0,0
 508:	00008067          	ret
 50c:	14c70793          	addi	a5,a4,332
 510:	14f72423          	sw	a5,328(a4)
 514:	fa5ff06f          	j	4b8 <__register_exitproc+0xc>
 518:	18c7a683          	lw	a3,396(a5)
 51c:	00170713          	addi	a4,a4,1
 520:	00e7a223          	sw	a4,4(a5)
 524:	00c6e6b3          	or	a3,a3,a2
 528:	18d7a623          	sw	a3,396(a5)
 52c:	010787b3          	add	a5,a5,a6
 530:	00b7a423          	sw	a1,8(a5)
 534:	00000513          	li	a0,0
 538:	00008067          	ret
 53c:	fff00513          	li	a0,-1
 540:	00008067          	ret

00000544 <_exit>:
 544:	05d00893          	li	a7,93
 548:	00000073          	ecall
 54c:	00054463          	bltz	a0,554 <_exit+0x10>
 550:	0000006f          	j	550 <_exit+0xc>
 554:	ff010113          	addi	sp,sp,-16
 558:	00812423          	sw	s0,8(sp)
 55c:	00050413          	mv	s0,a0
 560:	00112623          	sw	ra,12(sp)
 564:	40800433          	neg	s0,s0
 568:	00c000ef          	jal	ra,574 <__errno>
 56c:	00852023          	sw	s0,0(a0)
 570:	0000006f          	j	570 <_exit+0x2c>

00000574 <__errno>:
 574:	200007b7          	lui	a5,0x20000
 578:	4307a503          	lw	a0,1072(a5) # 20000430 <_impure_ptr>
 57c:	00008067          	ret

00000580 <register_fini>:
 580:	00000793          	li	a5,0
 584:	00078663          	beqz	a5,590 <register_fini+0x10>
 588:	44400513          	li	a0,1092
 58c:	f0dff06f          	j	498 <atexit>
 590:	00008067          	ret
